target datalayout = "e-m:e-p270:32:32-p271:32:32-p272:64:64-i64:64-i128:128-f80:128-n8:16:32:64-S128"
target triple = "x86_64-pc-linux-gnu"

%struct.stbir__contributors = type { i32, i32 }
%struct.__mm_storel_epi64_struct = type { i64 }
%struct.__loadu_ps = type { <4 x float> }

; Function Attrs: alwaysinline nounwind uwtable
define internal void @_mm_storel_epi64(ptr noundef %0, <2 x i64> noundef %1) #13 {
  %3 = alloca ptr, align 8
  %4 = alloca <2 x i64>, align 16
  store ptr %0, ptr %3, align 8
  store <2 x i64> %1, ptr %4, align 16
  %5 = load <2 x i64>, ptr %4, align 16
  %6 = extractelement <2 x i64> %5, i32 0
  %7 = load ptr, ptr %3, align 8
  %8 = getelementptr inbounds nuw %struct.__mm_storel_epi64_struct, ptr %7, i32 0, i32 0
  store i64 %6, ptr %8, align 1
  ret void
}

; Function Attrs: alwaysinline nounwind uwtable
define internal <4 x float> @_mm_add_ps(<4 x float> noundef %0, <4 x float> noundef %1) #13 {
  %3 = alloca <4 x float>, align 16
  %4 = alloca <4 x float>, align 16
  store <4 x float> %0, ptr %3, align 16
  store <4 x float> %1, ptr %4, align 16
  %5 = load <4 x float>, ptr %3, align 16
  %6 = load <4 x float>, ptr %4, align 16
  %7 = fadd <4 x float> %5, %6
  ret <4 x float> %7
}

; Function Attrs: alwaysinline nounwind uwtable
define internal <4 x float> @_mm_mul_ps(<4 x float> noundef %0, <4 x float> noundef %1) #13 {
  %3 = alloca <4 x float>, align 16
  %4 = alloca <4 x float>, align 16
  store <4 x float> %0, ptr %3, align 16
  store <4 x float> %1, ptr %4, align 16
  %5 = load <4 x float>, ptr %3, align 16
  %6 = load <4 x float>, ptr %4, align 16
  %7 = fmul <4 x float> %5, %6
  ret <4 x float> %7
}

; Function Attrs: alwaysinline nounwind uwtable
define internal <4 x float> @_mm_castsi128_ps(<2 x i64> noundef %0) #13 {
  %2 = alloca <2 x i64>, align 16
  store <2 x i64> %0, ptr %2, align 16
  %3 = load <2 x i64>, ptr %2, align 16
  %4 = bitcast <2 x i64> %3 to <4 x float>
  ret <4 x float> %4
}

; Function Attrs: alwaysinline nounwind uwtable
define internal <2 x i64> @_mm_castps_si128(<4 x float> noundef %0) #13 {
  %2 = alloca <4 x float>, align 16
  store <4 x float> %0, ptr %2, align 16
  %3 = load <4 x float>, ptr %2, align 16
  %4 = bitcast <4 x float> %3 to <2 x i64>
  ret <2 x i64> %4
}

; Function Attrs: alwaysinline nounwind uwtable
define internal <4 x float> @_mm_loadu_ps(ptr noundef %0) #13 {
  %2 = alloca ptr, align 8
  store ptr %0, ptr %2, align 8
  %3 = load ptr, ptr %2, align 8
  %4 = getelementptr inbounds nuw %struct.__loadu_ps, ptr %3, i32 0, i32 0
  %5 = load <4 x float>, ptr %4, align 1
  ret <4 x float> %5
}

; Function Attrs: nounwind uwtable
define internal void @stbir__horizontal_gather_2_channels_with_4_coeffs(ptr noundef %0, i32 noundef %1, ptr noundef %2, ptr noundef %3, ptr noundef %4, i32 noundef %5) #12 {
  %7 = alloca ptr, align 8
  %8 = alloca i32, align 4
  %9 = alloca ptr, align 8
  %10 = alloca ptr, align 8
  %11 = alloca ptr, align 8
  %12 = alloca i32, align 4
  %13 = alloca ptr, align 8
  %14 = alloca ptr, align 8
  %15 = alloca ptr, align 8
  %16 = alloca ptr, align 8
  %17 = alloca <4 x float>, align 16
  %18 = alloca <4 x float>, align 16
  %19 = alloca <4 x float>, align 16
  %20 = alloca <4 x float>, align 16
  store ptr %0, ptr %7, align 8
  store i32 %1, ptr %8, align 4
  store ptr %2, ptr %9, align 8
  store ptr %3, ptr %10, align 8
  store ptr %4, ptr %11, align 8
  store i32 %5, ptr %12, align 4
  call void @llvm.lifetime.start.p0(i64 8, ptr %13) #19
  %21 = load ptr, ptr %7, align 8
  %22 = load i32, ptr %8, align 4
  %23 = mul i32 %22, 2
  %24 = zext i32 %23 to i64
  %25 = getelementptr inbounds nuw float, ptr %21, i64 %24
  store ptr %25, ptr %13, align 8
  call void @llvm.lifetime.start.p0(i64 8, ptr %14) #19
  %26 = load ptr, ptr %7, align 8
  store ptr %26, ptr %14, align 8
  br label %27

27:                                               ; preds = %83, %6
  call void @llvm.lifetime.start.p0(i64 8, ptr %15) #19
  %28 = load ptr, ptr %9, align 8
  %29 = load ptr, ptr %10, align 8
  %30 = getelementptr inbounds nuw %struct.stbir__contributors, ptr %29, i32 0, i32 0
  %31 = load i32, ptr %30, align 4
  %32 = mul nsw i32 %31, 2
  %33 = sext i32 %32 to i64
  %34 = getelementptr inbounds float, ptr %28, i64 %33
  store ptr %34, ptr %15, align 8
  call void @llvm.lifetime.start.p0(i64 8, ptr %16) #19
  %35 = load ptr, ptr %11, align 8
  store ptr %35, ptr %16, align 8
  call void @llvm.lifetime.start.p0(i64 16, ptr %17) #19
  call void @llvm.lifetime.start.p0(i64 16, ptr %18) #19
  call void @llvm.lifetime.start.p0(i64 16, ptr %19) #19
  call void @llvm.lifetime.start.p0(i64 16, ptr %20) #19
  %36 = load ptr, ptr %15, align 8
  call void asm sideeffect "", "r,~{dirflag},~{fpsr},~{flags}"(ptr %36) #19, !srcloc !534
  %37 = load ptr, ptr %16, align 8
  %38 = call <4 x float> @_mm_loadu_ps(ptr noundef %37)
  store <4 x float> %38, ptr %20, align 16
  %39 = load <4 x float>, ptr %20, align 16
  %40 = call <2 x i64> @_mm_castps_si128(<4 x float> noundef %39)
  %41 = bitcast <2 x i64> %40 to <4 x i32>
  %42 = shufflevector <4 x i32> %41, <4 x i32> poison, <4 x i32> <i32 0, i32 0, i32 1, i32 1>
  %43 = bitcast <4 x i32> %42 to <2 x i64>
  %44 = call <4 x float> @_mm_castsi128_ps(<2 x i64> noundef %43)
  store <4 x float> %44, ptr %19, align 16
  %45 = load <4 x float>, ptr %19, align 16
  %46 = load ptr, ptr %15, align 8
  %47 = call <4 x float> @_mm_loadu_ps(ptr noundef %46)
  %48 = call <4 x float> @_mm_mul_ps(<4 x float> noundef %45, <4 x float> noundef %47)
  store <4 x float> %48, ptr %17, align 16
  %49 = load <4 x float>, ptr %20, align 16
  %50 = call <2 x i64> @_mm_castps_si128(<4 x float> noundef %49)
  %51 = bitcast <2 x i64> %50 to <4 x i32>
  %52 = shufflevector <4 x i32> %51, <4 x i32> poison, <4 x i32> <i32 2, i32 2, i32 3, i32 3>
  %53 = bitcast <4 x i32> %52 to <2 x i64>
  %54 = call <4 x float> @_mm_castsi128_ps(<2 x i64> noundef %53)
  store <4 x float> %54, ptr %19, align 16
  %55 = load <4 x float>, ptr %19, align 16
  %56 = load ptr, ptr %15, align 8
  %57 = getelementptr inbounds float, ptr %56, i64 4
  %58 = call <4 x float> @_mm_loadu_ps(ptr noundef %57)
  %59 = call <4 x float> @_mm_mul_ps(<4 x float> noundef %55, <4 x float> noundef %58)
  store <4 x float> %59, ptr %18, align 16
  %60 = load <4 x float>, ptr %17, align 16
  %61 = load <4 x float>, ptr %18, align 16
  %62 = call <4 x float> @_mm_add_ps(<4 x float> noundef %60, <4 x float> noundef %61)
  store <4 x float> %62, ptr %17, align 16
  %63 = load <4 x float>, ptr %17, align 16
  %64 = call <2 x i64> @_mm_castps_si128(<4 x float> noundef %63)
  %65 = bitcast <2 x i64> %64 to <4 x i32>
  %66 = shufflevector <4 x i32> %65, <4 x i32> poison, <4 x i32> <i32 2, i32 3, i32 0, i32 1>
  %67 = bitcast <4 x i32> %66 to <2 x i64>
  %68 = call <4 x float> @_mm_castsi128_ps(<2 x i64> noundef %67)
  store <4 x float> %68, ptr %19, align 16
  %69 = load <4 x float>, ptr %17, align 16
  %70 = load <4 x float>, ptr %19, align 16
  %71 = call <4 x float> @_mm_add_ps(<4 x float> noundef %69, <4 x float> noundef %70)
  store <4 x float> %71, ptr %17, align 16
  %72 = load ptr, ptr %14, align 8
  %73 = load <4 x float>, ptr %17, align 16
  %74 = call <2 x i64> @_mm_castps_si128(<4 x float> noundef %73)
  call void @_mm_storel_epi64(ptr noundef %72, <2 x i64> noundef %74)
  %75 = load i32, ptr %12, align 4
  %76 = load ptr, ptr %11, align 8
  %77 = sext i32 %75 to i64
  %78 = getelementptr inbounds float, ptr %76, i64 %77
  store ptr %78, ptr %11, align 8
  %79 = load ptr, ptr %10, align 8
  %80 = getelementptr inbounds nuw %struct.stbir__contributors, ptr %79, i32 1
  store ptr %80, ptr %10, align 8
  %81 = load ptr, ptr %14, align 8
  %82 = getelementptr inbounds float, ptr %81, i64 2
  store ptr %82, ptr %14, align 8
  call void @llvm.lifetime.end.p0(i64 16, ptr %20) #19
  call void @llvm.lifetime.end.p0(i64 16, ptr %19) #19
  call void @llvm.lifetime.end.p0(i64 16, ptr %18) #19
  call void @llvm.lifetime.end.p0(i64 16, ptr %17) #19
  call void @llvm.lifetime.end.p0(i64 8, ptr %16) #19
  call void @llvm.lifetime.end.p0(i64 8, ptr %15) #19
  br label %83

83:                                               ; preds = %27
  %84 = load ptr, ptr %14, align 8
  %85 = load ptr, ptr %13, align 8
  %86 = icmp ult ptr %84, %85
  br i1 %86, label %27, label %87, !llvm.loop !535

87:                                               ; preds = %83
  call void @llvm.lifetime.end.p0(i64 8, ptr %14) #19
  call void @llvm.lifetime.end.p0(i64 8, ptr %13) #19
  ret void
}